target datalayout = "e-m:e-p270:32:32-p271:32:32-p272:64:64-i64:64-i128:128-f80:128-n8:16:32:64-S128"
target triple = "x86_64-pc-linux-gnu"

%struct.darktable_t = type { %struct.dt_codepath_t, i32, i32, ptr, ptr, ptr, ptr, ptr, ptr, ptr, ptr, ptr, ptr, ptr, ptr, ptr, ptr, ptr, ptr, ptr, ptr, ptr, ptr, ptr, ptr, ptr, ptr, ptr, ptr, ptr, [64 x %struct.dt_pthread_mutex_t], %struct.dt_pthread_mutex_t, %struct.dt_pthread_mutex_t, %struct.dt_pthread_mutex_t, %struct.dt_pthread_mutex_t, %struct.dt_pthread_mutex_t, ptr, ptr, ptr, ptr, ptr, ptr, ptr, ptr, ptr, ptr, ptr, ptr, ptr, %struct.dt_lua_state_t, ptr, double, ptr, i32, [47 x i32], i32, i32, ptr, ptr, %struct.dt_sys_resources_t, %struct.dt_backthumb_t, %struct.dt_gimp_t }
%struct.dt_codepath_t = type { i8, [3 x i8] }
%struct.dt_pthread_mutex_t = type { %union.pthread_mutex_t }
%union.pthread_mutex_t = type { %struct.__pthread_mutex_s }
%struct.__pthread_mutex_s = type { i32, i32, i32, i32, i32, i16, i16, %struct.__pthread_internal_list }
%struct.__pthread_internal_list = type { ptr, ptr }
%struct.dt_lua_state_t = type { i32 }
%struct.dt_sys_resources_t = type { i64, i64, ptr, ptr, i32 }
%struct.dt_backthumb_t = type { double, double, i32, i32, i32, i32 }
%struct.dt_gimp_t = type { i32, ptr, ptr, i32, i32 }
%struct.dt_action_element_def_t = type { ptr, ptr }
%struct.dt_iop_module_t = type { i32, ptr, ptr, ptr, ptr, ptr, ptr, ptr, ptr, ptr, ptr, ptr, ptr, ptr, ptr, ptr, ptr, ptr, ptr, ptr, ptr, ptr, ptr, ptr, ptr, ptr, ptr, ptr, ptr, ptr, ptr, ptr, ptr, ptr, ptr, ptr, ptr, ptr, ptr, ptr, ptr, ptr, ptr, ptr, ptr, ptr, ptr, ptr, ptr, ptr, ptr, ptr, ptr, ptr, ptr, ptr, ptr, [20 x i8], i32, i32, i32, i32, i32, i32, i32, [8 x i8], [4 x float], [4 x float], [4 x float], [4 x float], [4 x float], [4 x float], ptr, %struct.dt_dev_histogram_stats_t, [4 x i32], i32, i32, ptr, i32, i32, ptr, ptr, i32, ptr, %struct.dt_pthread_mutex_t, ptr, ptr, ptr, ptr, %struct.anon, ptr, ptr, ptr, ptr, ptr, ptr, ptr, i32, ptr, ptr, ptr, ptr, ptr, ptr, ptr, i32, ptr, i32, [128 x i8], i32, ptr, ptr, i32, [12 x i8] }
%struct.dt_dev_histogram_stats_t = type { i32, i64, i32, i32 }
%struct.anon = type { %struct.anon.0, %struct.anon.1 }
%struct.anon.0 = type { ptr, ptr }
%struct.anon.1 = type { ptr, i32 }
%struct.dt_iop_rgblevels_gui_data_t = type { %struct.dt_iop_rgblevels_params_t, ptr, ptr, ptr, ptr, ptr, ptr, i32, i32, float, float, float, float, [4 x float], i32, double, double, i32, i32, float, i32, float, ptr, ptr, ptr }
%struct.dt_iop_rgblevels_params_t = type { i32, i32, [3 x [3 x float]] }

@darktable = external global %struct.darktable_t, align 8
@.str.22 = private unnamed_addr constant [13 x i8] c"iop-instance\00", align 1
@.str.71 = private unnamed_addr constant [63 x i8] c"[_action_process_tabs] unknown shortcut effect (%d) for levels\00", align 1
@.str.72 = private unnamed_addr constant [8 x i8] c"%s %.2f\00", align 1

; Function Attrs: nounwind uwtable
define internal float @_action_process(ptr noundef %0, i32 noundef %1, i32 noundef %2, float noundef %3) #0 {
  %5 = alloca ptr, align 8
  %6 = alloca i32, align 4
  %7 = alloca i32, align 4
  %8 = alloca float, align 4
  %9 = alloca ptr, align 8
  %10 = alloca ptr, align 8
  %11 = alloca ptr, align 8
  %12 = alloca float, align 4
  %13 = alloca float, align 4
  %14 = alloca float, align 4
  %15 = alloca ptr, align 8
  store ptr %0, ptr %5, align 8, !tbaa !124
  store i32 %1, ptr %6, align 4, !tbaa !19
  store i32 %2, ptr %7, align 4, !tbaa !19
  store float %3, ptr %8, align 4, !tbaa !15
  call void @llvm.lifetime.start.p0(i64 8, ptr %9) #13
  %16 = load ptr, ptr %5, align 8, !tbaa !124
  %17 = call ptr @g_type_check_instance_cast(ptr noundef %16, i64 noundef 80)
  %18 = call ptr @g_object_get_data(ptr noundef %17, ptr noundef @.str.22)
  store ptr %18, ptr %9, align 8, !tbaa !6
  call void @llvm.lifetime.start.p0(i64 8, ptr %10) #13
  %19 = load ptr, ptr %9, align 8, !tbaa !6
  %20 = getelementptr inbounds nuw %struct.dt_iop_module_t, ptr %19, i32 0, i32 83
  %21 = load ptr, ptr %20, align 16, !tbaa !21
  store ptr %21, ptr %10, align 8, !tbaa !37
  call void @llvm.lifetime.start.p0(i64 8, ptr %11) #13
  %22 = load ptr, ptr %9, align 8, !tbaa !6
  %23 = getelementptr inbounds nuw %struct.dt_iop_module_t, ptr %22, i32 0, i32 80
  %24 = load ptr, ptr %23, align 8, !tbaa !125
  store ptr %24, ptr %11, align 8, !tbaa !126
  %25 = load float, ptr %8, align 4, !tbaa !15
  %26 = fcmp reassoc nsz arcp contract afn une float %25, 0xC7EFFFFFE0000000
  br i1 %26, label %27, label %174

27:                                               ; preds = %4
  call void @llvm.lifetime.start.p0(i64 4, ptr %12) #13
  store float -1.000000e+06, ptr %12, align 4, !tbaa !15
  %28 = load i32, ptr %7, align 4, !tbaa !19
  switch i32 %28, label %133 [
    i32 3, label %29
    i32 5, label %55
    i32 4, label %58
    i32 2, label %60
    i32 1, label %63
  ]

29:                                               ; preds = %27
  %30 = load ptr, ptr %11, align 8, !tbaa !126
  %31 = getelementptr inbounds nuw %struct.dt_iop_rgblevels_params_t, ptr %30, i32 0, i32 2
  %32 = load ptr, ptr %10, align 8, !tbaa !37
  %33 = getelementptr inbounds nuw %struct.dt_iop_rgblevels_gui_data_t, ptr %32, i32 0, i32 20
  %34 = load i32, ptr %33, align 4, !tbaa !129
  %35 = zext i32 %34 to i64
  %36 = getelementptr inbounds nuw [3 x [3 x float]], ptr %31, i64 0, i64 %35
  %37 = getelementptr inbounds [3 x float], ptr %36, i64 0, i64 0
  store float 0.000000e+00, ptr %37, align 4, !tbaa !15
  %38 = load ptr, ptr %11, align 8, !tbaa !126
  %39 = getelementptr inbounds nuw %struct.dt_iop_rgblevels_params_t, ptr %38, i32 0, i32 2
  %40 = load ptr, ptr %10, align 8, !tbaa !37
  %41 = getelementptr inbounds nuw %struct.dt_iop_rgblevels_gui_data_t, ptr %40, i32 0, i32 20
  %42 = load i32, ptr %41, align 4, !tbaa !129
  %43 = zext i32 %42 to i64
  %44 = getelementptr inbounds nuw [3 x [3 x float]], ptr %39, i64 0, i64 %43
  %45 = getelementptr inbounds [3 x float], ptr %44, i64 0, i64 1
  store float 5.000000e-01, ptr %45, align 4, !tbaa !15
  %46 = load ptr, ptr %11, align 8, !tbaa !126
  %47 = getelementptr inbounds nuw %struct.dt_iop_rgblevels_params_t, ptr %46, i32 0, i32 2
  %48 = load ptr, ptr %10, align 8, !tbaa !37
  %49 = getelementptr inbounds nuw %struct.dt_iop_rgblevels_gui_data_t, ptr %48, i32 0, i32 20
  %50 = load i32, ptr %49, align 4, !tbaa !129
  %51 = zext i32 %50 to i64
  %52 = getelementptr inbounds nuw [3 x [3 x float]], ptr %47, i64 0, i64 %51
  %53 = getelementptr inbounds [3 x float], ptr %52, i64 0, i64 2
  store float 1.000000e+00, ptr %53, align 4, !tbaa !15
  %54 = load ptr, ptr %5, align 8, !tbaa !124
  call void @gtk_widget_queue_draw(ptr noundef %54)
  br label %144

55:                                               ; preds = %27
  %56 = load float, ptr %12, align 4, !tbaa !15
  %57 = fmul reassoc nsz arcp contract afn float %56, -1.000000e+00
  store float %57, ptr %12, align 4, !tbaa !15
  br label %58

58:                                               ; preds = %27, %55
  %59 = load float, ptr %12, align 4, !tbaa !15
  store float %59, ptr %8, align 4, !tbaa !15
  br label %60

60:                                               ; preds = %27, %58
  %61 = load float, ptr %8, align 4, !tbaa !15
  %62 = fmul reassoc nsz arcp contract afn float %61, -1.000000e+00
  store float %62, ptr %8, align 4, !tbaa !15
  br label %63

63:                                               ; preds = %27, %60
  %64 = load ptr, ptr %11, align 8, !tbaa !126
  %65 = getelementptr inbounds nuw %struct.dt_iop_rgblevels_params_t, ptr %64, i32 0, i32 2
  %66 = load ptr, ptr %10, align 8, !tbaa !37
  %67 = getelementptr inbounds nuw %struct.dt_iop_rgblevels_gui_data_t, ptr %66, i32 0, i32 20
  %68 = load i32, ptr %67, align 4, !tbaa !129
  %69 = zext i32 %68 to i64
  %70 = getelementptr inbounds nuw [3 x [3 x float]], ptr %65, i64 0, i64 %69
  %71 = getelementptr inbounds [3 x float], ptr %70, i64 0, i64 1
  %72 = load float, ptr %71, align 4, !tbaa !15
  %73 = load ptr, ptr %11, align 8, !tbaa !126
  %74 = getelementptr inbounds nuw %struct.dt_iop_rgblevels_params_t, ptr %73, i32 0, i32 2
  %75 = load ptr, ptr %10, align 8, !tbaa !37
  %76 = getelementptr inbounds nuw %struct.dt_iop_rgblevels_gui_data_t, ptr %75, i32 0, i32 20
  %77 = load i32, ptr %76, align 4, !tbaa !129
  %78 = zext i32 %77 to i64
  %79 = getelementptr inbounds nuw [3 x [3 x float]], ptr %74, i64 0, i64 %78
  %80 = getelementptr inbounds [3 x float], ptr %79, i64 0, i64 0
  %81 = load float, ptr %80, align 4, !tbaa !15
  %82 = fsub reassoc nsz arcp contract afn float %72, %81
  %83 = load ptr, ptr %11, align 8, !tbaa !126
  %84 = getelementptr inbounds nuw %struct.dt_iop_rgblevels_params_t, ptr %83, i32 0, i32 2
  %85 = load ptr, ptr %10, align 8, !tbaa !37
  %86 = getelementptr inbounds nuw %struct.dt_iop_rgblevels_gui_data_t, ptr %85, i32 0, i32 20
  %87 = load i32, ptr %86, align 4, !tbaa !129
  %88 = zext i32 %87 to i64
  %89 = getelementptr inbounds nuw [3 x [3 x float]], ptr %84, i64 0, i64 %88
  %90 = getelementptr inbounds [3 x float], ptr %89, i64 0, i64 2
  %91 = load float, ptr %90, align 4, !tbaa !15
  %92 = load ptr, ptr %11, align 8, !tbaa !126
  %93 = getelementptr inbounds nuw %struct.dt_iop_rgblevels_params_t, ptr %92, i32 0, i32 2
  %94 = load ptr, ptr %10, align 8, !tbaa !37
  %95 = getelementptr inbounds nuw %struct.dt_iop_rgblevels_gui_data_t, ptr %94, i32 0, i32 20
  %96 = load i32, ptr %95, align 4, !tbaa !129
  %97 = zext i32 %96 to i64
  %98 = getelementptr inbounds nuw [3 x [3 x float]], ptr %93, i64 0, i64 %97
  %99 = getelementptr inbounds [3 x float], ptr %98, i64 0, i64 0
  %100 = load float, ptr %99, align 4, !tbaa !15
  %101 = fsub reassoc nsz arcp contract afn float %91, %100
  %102 = fdiv reassoc nsz arcp contract afn float %82, %101
  %103 = load ptr, ptr %10, align 8, !tbaa !37
  %104 = getelementptr inbounds nuw %struct.dt_iop_rgblevels_gui_data_t, ptr %103, i32 0, i32 19
  store float %102, ptr %104, align 8, !tbaa !162
  store float 0x3F947AE140000000, ptr %13, align 4, !tbaa !15
  %105 = load ptr, ptr %11, align 8, !tbaa !126
  %106 = getelementptr inbounds nuw %struct.dt_iop_rgblevels_params_t, ptr %105, i32 0, i32 2
  %107 = load ptr, ptr %10, align 8, !tbaa !37
  %108 = getelementptr inbounds nuw %struct.dt_iop_rgblevels_gui_data_t, ptr %107, i32 0, i32 20
  %109 = load i32, ptr %108, align 4, !tbaa !129
  %110 = zext i32 %109 to i64
  %111 = getelementptr inbounds nuw [3 x [3 x float]], ptr %106, i64 0, i64 %110
  %112 = load i32, ptr %6, align 4, !tbaa !19
  %113 = sext i32 %112 to i64
  %114 = getelementptr inbounds [3 x float], ptr %111, i64 0, i64 %113
  %115 = load float, ptr %114, align 4, !tbaa !15
  %116 = load float, ptr %8, align 4, !tbaa !15
  %117 = fmul reassoc nsz arcp contract afn float 0x3F947AE140000000, %116
  %118 = fadd reassoc nsz arcp contract afn float %115, %117
  store float %118, ptr %14, align 4, !tbaa !15
  %119 = load ptr, ptr %9, align 8, !tbaa !6
  %120 = load i32, ptr %6, align 4, !tbaa !19
  %121 = load float, ptr %14, align 4, !tbaa !15
  %122 = load ptr, ptr %11, align 8, !tbaa !126
  %123 = getelementptr inbounds nuw %struct.dt_iop_rgblevels_params_t, ptr %122, i32 0, i32 2
  %124 = load ptr, ptr %10, align 8, !tbaa !37
  %125 = getelementptr inbounds nuw %struct.dt_iop_rgblevels_gui_data_t, ptr %124, i32 0, i32 20
  %126 = load i32, ptr %125, align 4, !tbaa !129
  %127 = zext i32 %126 to i64
  %128 = getelementptr inbounds nuw [3 x [3 x float]], ptr %123, i64 0, i64 %127
  %129 = getelementptr inbounds [3 x float], ptr %128, i64 0, i64 0
  %130 = load ptr, ptr %10, align 8, !tbaa !37
  %131 = getelementptr inbounds nuw %struct.dt_iop_rgblevels_gui_data_t, ptr %130, i32 0, i32 19
  %132 = load float, ptr %131, align 8, !tbaa !162
  call void @_rgblevels_move_handle(ptr noundef %119, i32 noundef %120, float noundef %121, ptr noundef %129, float noundef %132)
  br label %133

133:                                              ; preds = %27, %63
  br label %134

134:                                              ; preds = %133
  %135 = load i32, ptr getelementptr inbounds nuw (%struct.darktable_t, ptr @darktable, i32 0, i32 2), align 8, !tbaa !163
  %136 = xor i32 %135, -1
  %137 = and i32 0, %136
  %138 = icmp ne i32 %137, 0
  br i1 %138, label %141, label %139

139:                                              ; preds = %134
  %140 = load i32, ptr %7, align 4, !tbaa !19
  call void (ptr, ...) @dt_print_ext(ptr noundef @.str.71, i32 noundef %140)
  br label %141

141:                                              ; preds = %139, %134
  br label %142

142:                                              ; preds = %141
  br label %143

143:                                              ; preds = %142
  br label %144

144:                                              ; preds = %143, %29
  call void @llvm.lifetime.start.p0(i64 8, ptr %15) #13
  %145 = load i32, ptr %6, align 4, !tbaa !19
  %146 = sext i32 %145 to i64
  %147 = getelementptr inbounds [4 x %struct.dt_action_element_def_t], ptr @_action_elements_levels, i64 0, i64 %146
  %148 = getelementptr inbounds nuw %struct.dt_action_element_def_t, ptr %147, i32 0, i32 0
  %149 = load ptr, ptr %148, align 16, !tbaa !164
  %150 = load ptr, ptr %11, align 8, !tbaa !126
  %151 = getelementptr inbounds nuw %struct.dt_iop_rgblevels_params_t, ptr %150, i32 0, i32 2
  %152 = load ptr, ptr %10, align 8, !tbaa !37
  %153 = getelementptr inbounds nuw %struct.dt_iop_rgblevels_gui_data_t, ptr %152, i32 0, i32 20
  %154 = load i32, ptr %153, align 4, !tbaa !129
  %155 = zext i32 %154 to i64
  %156 = getelementptr inbounds nuw [3 x [3 x float]], ptr %151, i64 0, i64 %155
  %157 = load i32, ptr %6, align 4, !tbaa !19
  %158 = sext i32 %157 to i64
  %159 = getelementptr inbounds [3 x float], ptr %156, i64 0, i64 %158
  %160 = load float, ptr %159, align 4, !tbaa !15
  %161 = fpext reassoc nsz arcp contract afn float %160 to double
  %162 = call noalias ptr (ptr, ...) @g_strdup_printf(ptr noundef @.str.72, ptr noundef %149, double noundef %161)
  store ptr %162, ptr %15, align 8, !tbaa !161
  %163 = load ptr, ptr %9, align 8, !tbaa !6
  %164 = icmp ne ptr %163, null
  br i1 %164, label %165, label %168

165:                                              ; preds = %144
  %166 = load ptr, ptr %9, align 8, !tbaa !6
  %167 = getelementptr inbounds nuw %struct.dt_iop_module_t, ptr %166, i32 0, i32 0
  br label %169

168:                                              ; preds = %144
  br label %169

169:                                              ; preds = %168, %165
  %170 = phi ptr [ %167, %165 ], [ null, %168 ]
  %171 = load ptr, ptr %5, align 8, !tbaa !124
  %172 = load ptr, ptr %15, align 8, !tbaa !161
  call void (ptr, ptr, ptr, ...) @dt_action_widget_toast(ptr noundef %170, ptr noundef %171, ptr noundef %172)
  %173 = load ptr, ptr %15, align 8, !tbaa !161
  call void @g_free(ptr noundef %173)
  call void @llvm.lifetime.end.p0(i64 8, ptr %15) #13
  call void @llvm.lifetime.end.p0(i64 4, ptr %12) #13
  br label %174

174:                                              ; preds = %169, %4
  %175 = load ptr, ptr %11, align 8, !tbaa !126
  %176 = getelementptr inbounds nuw %struct.dt_iop_rgblevels_params_t, ptr %175, i32 0, i32 2
  %177 = load ptr, ptr %10, align 8, !tbaa !37
  %178 = getelementptr inbounds nuw %struct.dt_iop_rgblevels_gui_data_t, ptr %177, i32 0, i32 20
  %179 = load i32, ptr %178, align 4, !tbaa !129
  %180 = zext i32 %179 to i64
  %181 = getelementptr inbounds nuw [3 x [3 x float]], ptr %176, i64 0, i64 %180
  %182 = load i32, ptr %6, align 4, !tbaa !19
  %183 = sext i32 %182 to i64
  %184 = getelementptr inbounds [3 x float], ptr %181, i64 0, i64 %183
  %185 = load float, ptr %184, align 4, !tbaa !15
  call void @llvm.lifetime.end.p0(i64 8, ptr %11) #13
  call void @llvm.lifetime.end.p0(i64 8, ptr %10) #13
  call void @llvm.lifetime.end.p0(i64 8, ptr %9) #13
  ret float %185
}