; Function Attrs: nounwind uwtable
define internal float @_action_process(ptr noundef %0, i32 noundef %1, i32 noundef %2, float noundef %3) #1 {
  %5 = tail call ptr @g_type_check_instance_cast(ptr noundef %0, i64 noundef 80) #21
  %6 = tail call ptr @g_object_get_data(ptr noundef %5, ptr noundef nonnull @.str.22) #21
  %7 = getelementptr inbounds nuw i8, ptr %6, i64 704
  %8 = load ptr, ptr %7, align 16, !tbaa !6
  %9 = getelementptr inbounds nuw i8, ptr %6, i64 680
  %10 = load ptr, ptr %9, align 8, !tbaa !114
  %11 = fcmp reassoc nsz arcp contract afn une float %3, 0xC7EFFFFFE0000000
  br i1 %11, label %12, label %._crit_edge

._crit_edge:                                      ; preds = %4
  %.pre = sext i32 %1 to i64
  br label %59

12:                                               ; preds = %4
  switch i32 %2, label %46 [
    i32 3, label %13
    i32 5, label %22
    i32 4, label %23
    i32 2, label %24
    i32 1, label %26
  ]

13:                                               ; preds = %12
  %14 = getelementptr inbounds nuw i8, ptr %10, i64 8
  %15 = getelementptr inbounds nuw i8, ptr %8, i64 172
  %16 = load i32, ptr %15, align 4, !tbaa !116
  %17 = zext i32 %16 to i64
  %18 = getelementptr inbounds nuw [3 x [3 x float]], ptr %14, i64 0, i64 %17
  store float 0.000000e+00, ptr %18, align 4, !tbaa !37
  %.idx = mul nuw nsw i64 %17, 12
  %19 = getelementptr inbounds nuw i8, ptr %14, i64 %.idx
  %20 = getelementptr inbounds nuw i8, ptr %19, i64 4
  store float 5.000000e-01, ptr %20, align 4, !tbaa !37
  %21 = getelementptr inbounds nuw i8, ptr %19, i64 8
  store float 1.000000e+00, ptr %21, align 4, !tbaa !37
  tail call void @gtk_widget_queue_draw(ptr noundef %0) #21
  br label %47

22:                                               ; preds = %12
  br label %24

23:                                               ; preds = %12
  br label %24

24:                                               ; preds = %22, %23, %12
  %.0 = phi nsz float [ %3, %12 ], [ 1.000000e+06, %22 ], [ -1.000000e+06, %23 ]
  %25 = fneg reassoc nsz arcp contract afn float %.0
  br label %26

26:                                               ; preds = %24, %12
  %.1 = phi nsz float [ %3, %12 ], [ %25, %24 ]
  %27 = getelementptr inbounds nuw i8, ptr %10, i64 8
  %28 = getelementptr inbounds nuw i8, ptr %8, i64 172
  %29 = load i32, ptr %28, align 4, !tbaa !116
  %30 = zext i32 %29 to i64
  %31 = getelementptr inbounds nuw [3 x [3 x float]], ptr %27, i64 0, i64 %30
  %32 = getelementptr inbounds nuw i8, ptr %31, i64 4
  %33 = load float, ptr %32, align 4, !tbaa !37
  %34 = load float, ptr %31, align 4, !tbaa !37
  %35 = fsub reassoc nsz arcp contract afn float %33, %34
  %36 = getelementptr inbounds nuw i8, ptr %31, i64 8
  %37 = load float, ptr %36, align 4, !tbaa !37
  %38 = fsub reassoc nsz arcp contract afn float %37, %34
  %39 = fdiv reassoc nsz arcp contract afn float %35, %38
  %40 = getelementptr inbounds nuw i8, ptr %8, i64 168
  store float %39, ptr %40, align 8, !tbaa !142
  %41 = sext i32 %1 to i64
  %42 = getelementptr inbounds [3 x [3 x float]], ptr %27, i64 0, i64 %30, i64 %41
  %43 = load float, ptr %42, align 4, !tbaa !37
  %44 = fmul reassoc nsz arcp contract afn float %.1, 0x3F947AE140000000
  %45 = fadd reassoc nsz arcp contract afn float %43, %44
  tail call fastcc void @_rgblevels_move_handle(ptr noundef nonnull %6, i32 noundef %1, float noundef %45, ptr noundef nonnull %31, float noundef %39)
  br label %46

46:                                               ; preds = %26, %12
  tail call void (ptr, ...) @dt_print_ext(ptr noundef nonnull @.str.71, i32 noundef %2) #21
  br label %47

47:                                               ; preds = %46, %13
  %48 = sext i32 %1 to i64
  %49 = getelementptr inbounds [4 x %struct.dt_action_element_def_t], ptr @_action_elements_levels, i64 0, i64 %48
  %50 = load ptr, ptr %49, align 16, !tbaa !143
  %51 = getelementptr inbounds nuw i8, ptr %10, i64 8
  %52 = getelementptr inbounds nuw i8, ptr %8, i64 172
  %53 = load i32, ptr %52, align 4, !tbaa !116
  %54 = zext i32 %53 to i64
  %55 = getelementptr inbounds [3 x [3 x float]], ptr %51, i64 0, i64 %54, i64 %48
  %56 = load float, ptr %55, align 4, !tbaa !37
  %57 = fpext reassoc nsz arcp contract afn float %56 to double
  %58 = tail call noalias ptr (ptr, ...) @g_strdup_printf(ptr noundef nonnull @.str.72, ptr noundef %50, double noundef %57) #21
  tail call void (ptr, ptr, ptr, ...) @dt_action_widget_toast(ptr noundef nonnull %6, ptr noundef %0, ptr noundef %58) #21
  tail call void @g_free(ptr noundef %58) #21
  br label %59

59:                                               ; preds = %._crit_edge, %47
  %.pre-phi = phi i64 [ %.pre, %._crit_edge ], [ %48, %47 ]
  %60 = getelementptr inbounds nuw i8, ptr %10, i64 8
  %61 = getelementptr inbounds nuw i8, ptr %8, i64 172
  %62 = load i32, ptr %61, align 4, !tbaa !116
  %63 = zext i32 %62 to i64
  %64 = getelementptr inbounds [3 x [3 x float]], ptr %60, i64 0, i64 %63, i64 %.pre-phi
  %65 = load float, ptr %64, align 4, !tbaa !37
  ret float %65
}